target datalayout = "e-m:e-p270:32:32-p271:32:32-p272:64:64-i64:64-i128:128-f80:128-n8:16:32:64-S128"
target triple = "x86_64-pc-linux-gnu"

%struct._object = type { %union.anon, ptr }
%union.anon = type { i64 }
%struct.PyVarObject = type { %struct._object, i64 }
%struct._typeobject = type { %struct.PyVarObject, ptr, i64, i64, ptr, i64, ptr, ptr, ptr, ptr, ptr, ptr, ptr, ptr, ptr, ptr, ptr, ptr, ptr, i64, ptr, ptr, ptr, ptr, i64, ptr, ptr, ptr, ptr, ptr, ptr, ptr, ptr, ptr, i64, ptr, ptr, ptr, ptr, ptr, ptr, ptr, ptr, ptr, ptr, ptr, i32, ptr, ptr, i8, i16 }
%struct.PyASCIIObject = type { %struct._object, i64, i64, %struct.anon.47 }
%struct.anon.47 = type { i16, i16 }

@.str.19 = private unnamed_addr constant [14 x i8] c"utf_32_encode\00", align 1
@_Py_NoneStruct = external global %struct._object, align 8
@.str.43 = private unnamed_addr constant [4 x i8] c"str\00", align 1
@PyExc_ValueError = external global ptr, align 8
@.str.44 = private unnamed_addr constant [24 x i8] c"embedded null character\00", align 1
@.str.50 = private unnamed_addr constant [11 x i8] c"argument 1\00", align 1
@.str.52 = private unnamed_addr constant [11 x i8] c"argument 2\00", align 1
@.str.53 = private unnamed_addr constant [12 x i8] c"str or None\00", align 1
@.str.55 = private unnamed_addr constant [3 x i8] c"Nn\00", align 1

; Function Attrs: nounwind uwtable
define internal ptr @codec_tuple(ptr noundef %0, i64 noundef %1) #0 {
  %3 = alloca ptr, align 8
  %4 = alloca ptr, align 8
  %5 = alloca i64, align 8
  store ptr %0, ptr %4, align 8, !tbaa !4
  store i64 %1, ptr %5, align 8, !tbaa !11
  %6 = load ptr, ptr %4, align 8, !tbaa !4
  %7 = icmp eq ptr %6, null
  br i1 %7, label %8, label %9

8:                                                ; preds = %2
  store ptr null, ptr %3, align 8
  br label %13

9:                                                ; preds = %2
  %10 = load ptr, ptr %4, align 8, !tbaa !4
  %11 = load i64, ptr %5, align 8, !tbaa !11
  %12 = call ptr (ptr, ...) @Py_BuildValue(ptr noundef @.str.55, ptr noundef %10, i64 noundef %11)
  store ptr %12, ptr %3, align 8
  br label %13

13:                                               ; preds = %9, %8
  %14 = load ptr, ptr %3, align 8
  ret ptr %14
}

; Function Attrs: inlinehint nounwind uwtable
define internal i64 @PyUnicode_GET_LENGTH(ptr noundef %0) #3 {
  %2 = alloca ptr, align 8
  store ptr %0, ptr %2, align 8, !tbaa !4
  %3 = load ptr, ptr %2, align 8, !tbaa !4
  %4 = getelementptr inbounds nuw %struct.PyASCIIObject, ptr %3, i32 0, i32 1
  %5 = load i64, ptr %4, align 8, !tbaa !38
  ret i64 %5
}

; Function Attrs: nounwind uwtable
define internal ptr @_codecs_utf_32_encode_impl(ptr noundef %0, ptr noundef %1, ptr noundef %2, i32 noundef %3) #0 {
  %5 = alloca ptr, align 8
  %6 = alloca ptr, align 8
  %7 = alloca ptr, align 8
  %8 = alloca i32, align 4
  store ptr %0, ptr %5, align 8, !tbaa !4
  store ptr %1, ptr %6, align 8, !tbaa !4
  store ptr %2, ptr %7, align 8, !tbaa !9
  store i32 %3, ptr %8, align 4, !tbaa !19
  %9 = load ptr, ptr %6, align 8, !tbaa !4
  %10 = load ptr, ptr %7, align 8, !tbaa !9
  %11 = load i32, ptr %8, align 4, !tbaa !19
  %12 = call ptr @_PyUnicode_EncodeUTF32(ptr noundef %9, ptr noundef %10, i32 noundef %11)
  %13 = load ptr, ptr %6, align 8, !tbaa !4
  %14 = call i64 @PyUnicode_GET_LENGTH(ptr noundef %13)
  %15 = call ptr @codec_tuple(ptr noundef %12, i64 noundef %14)
  ret ptr %15
}

; Function Attrs: inlinehint nounwind uwtable
define internal i32 @PyType_HasFeature(ptr noundef %0, i64 noundef %1) #3 {
  %3 = alloca ptr, align 8
  %4 = alloca i64, align 8
  %5 = alloca i64, align 8
  store ptr %0, ptr %3, align 8, !tbaa !20
  store i64 %1, ptr %4, align 8, !tbaa !11
  call void @llvm.lifetime.start.p0(i64 8, ptr %5) #6
  %6 = load ptr, ptr %3, align 8, !tbaa !20
  %7 = getelementptr inbounds nuw %struct._typeobject, ptr %6, i32 0, i32 19
  %8 = load i64, ptr %7, align 8, !tbaa !22
  store i64 %8, ptr %5, align 8, !tbaa !11
  %9 = load i64, ptr %5, align 8, !tbaa !11
  %10 = load i64, ptr %4, align 8, !tbaa !11
  %11 = and i64 %9, %10
  %12 = icmp ne i64 %11, 0
  %13 = zext i1 %12 to i32
  call void @llvm.lifetime.end.p0(i64 8, ptr %5) #6
  ret i32 %13
}

; Function Attrs: inlinehint nounwind uwtable
define internal ptr @_Py_TYPE(ptr noundef %0) #3 {
  %2 = alloca ptr, align 8
  store ptr %0, ptr %2, align 8, !tbaa !4
  %3 = load ptr, ptr %2, align 8, !tbaa !4
  %4 = getelementptr inbounds nuw %struct._object, ptr %3, i32 0, i32 1
  %5 = load ptr, ptr %4, align 8, !tbaa !30
  ret ptr %5
}

; Function Attrs: nounwind uwtable
define internal ptr @_codecs_utf_32_encode(ptr noundef %0, ptr noundef %1, i64 noundef %2) #0 {
  %4 = alloca ptr, align 8
  %5 = alloca ptr, align 8
  %6 = alloca ptr, align 8
  %7 = alloca i64, align 8
  %8 = alloca ptr, align 8
  %9 = alloca ptr, align 8
  %10 = alloca ptr, align 8
  %11 = alloca i32, align 4
  %12 = alloca i64, align 8
  %13 = alloca i32, align 4
  store ptr %0, ptr %5, align 8, !tbaa !4
  store ptr %1, ptr %6, align 8, !tbaa !13
  store i64 %2, ptr %7, align 8, !tbaa !11
  call void @llvm.lifetime.start.p0(i64 8, ptr %8) #6
  store ptr null, ptr %8, align 8, !tbaa !4
  call void @llvm.lifetime.start.p0(i64 8, ptr %9) #6
  call void @llvm.lifetime.start.p0(i64 8, ptr %10) #6
  store ptr null, ptr %10, align 8, !tbaa !9
  call void @llvm.lifetime.start.p0(i64 4, ptr %11) #6
  store i32 0, ptr %11, align 4, !tbaa !19
  %14 = load i64, ptr %7, align 8, !tbaa !11
  %15 = icmp sle i64 1, %14
  br i1 %15, label %16, label %19

16:                                               ; preds = %3
  %17 = load i64, ptr %7, align 8, !tbaa !11
  %18 = icmp sle i64 %17, 3
  br i1 %18, label %24, label %19

19:                                               ; preds = %16, %3
  %20 = load i64, ptr %7, align 8, !tbaa !11
  %21 = call i32 @_PyArg_CheckPositional(ptr noundef @.str.19, i64 noundef %20, i64 noundef 1, i64 noundef 3)
  %22 = icmp ne i32 %21, 0
  br i1 %22, label %24, label %23

23:                                               ; preds = %19
  br label %101

24:                                               ; preds = %19, %16
  %25 = load ptr, ptr %6, align 8, !tbaa !13
  %26 = getelementptr ptr, ptr %25, i64 0
  %27 = load ptr, ptr %26, align 8, !tbaa !4
  %28 = call ptr @_Py_TYPE(ptr noundef %27)
  %29 = call i32 @PyType_HasFeature(ptr noundef %28, i64 noundef 268435456)
  %30 = icmp ne i32 %29, 0
  br i1 %30, label %35, label %31

31:                                               ; preds = %24
  %32 = load ptr, ptr %6, align 8, !tbaa !13
  %33 = getelementptr ptr, ptr %32, i64 0
  %34 = load ptr, ptr %33, align 8, !tbaa !4
  call void @_PyArg_BadArgument(ptr noundef @.str.19, ptr noundef @.str.50, ptr noundef @.str.43, ptr noundef %34)
  br label %101

35:                                               ; preds = %24
  %36 = load ptr, ptr %6, align 8, !tbaa !13
  %37 = getelementptr ptr, ptr %36, i64 0
  %38 = load ptr, ptr %37, align 8, !tbaa !4
  store ptr %38, ptr %9, align 8, !tbaa !4
  %39 = load i64, ptr %7, align 8, !tbaa !11
  %40 = icmp slt i64 %39, 2
  br i1 %40, label %41, label %42

41:                                               ; preds = %35
  br label %95

42:                                               ; preds = %35
  %43 = load ptr, ptr %6, align 8, !tbaa !13
  %44 = getelementptr ptr, ptr %43, i64 1
  %45 = load ptr, ptr %44, align 8, !tbaa !4
  %46 = icmp eq ptr %45, @_Py_NoneStruct
  br i1 %46, label %47, label %48

47:                                               ; preds = %42
  store ptr null, ptr %10, align 8, !tbaa !9
  br label %79

48:                                               ; preds = %42
  %49 = load ptr, ptr %6, align 8, !tbaa !13
  %50 = getelementptr ptr, ptr %49, i64 1
  %51 = load ptr, ptr %50, align 8, !tbaa !4
  %52 = call ptr @_Py_TYPE(ptr noundef %51)
  %53 = call i32 @PyType_HasFeature(ptr noundef %52, i64 noundef 268435456)
  %54 = icmp ne i32 %53, 0
  br i1 %54, label %55, label %74

55:                                               ; preds = %48
  call void @llvm.lifetime.start.p0(i64 8, ptr %12) #6
  %56 = load ptr, ptr %6, align 8, !tbaa !13
  %57 = getelementptr ptr, ptr %56, i64 1
  %58 = load ptr, ptr %57, align 8, !tbaa !4
  %59 = call ptr @PyUnicode_AsUTF8AndSize(ptr noundef %58, ptr noundef %12)
  store ptr %59, ptr %10, align 8, !tbaa !9
  %60 = load ptr, ptr %10, align 8, !tbaa !9
  %61 = icmp eq ptr %60, null
  br i1 %61, label %62, label %63

62:                                               ; preds = %55
  store i32 2, ptr %13, align 4
  br label %71

63:                                               ; preds = %55
  %64 = load ptr, ptr %10, align 8, !tbaa !9
  %65 = call i64 @strlen(ptr noundef %64) #7
  %66 = load i64, ptr %12, align 8, !tbaa !11
  %67 = icmp ne i64 %65, %66
  br i1 %67, label %68, label %70

68:                                               ; preds = %63
  %69 = load ptr, ptr @PyExc_ValueError, align 8, !tbaa !4
  call void @PyErr_SetString(ptr noundef %69, ptr noundef @.str.44)
  store i32 2, ptr %13, align 4
  br label %71

70:                                               ; preds = %63
  store i32 0, ptr %13, align 4
  br label %71

71:                                               ; preds = %68, %62, %70
  call void @llvm.lifetime.end.p0(i64 8, ptr %12) #6
  %72 = load i32, ptr %13, align 4
  switch i32 %72, label %103 [
    i32 0, label %73
    i32 2, label %101
  ]

73:                                               ; preds = %71
  br label %78

74:                                               ; preds = %48
  %75 = load ptr, ptr %6, align 8, !tbaa !13
  %76 = getelementptr ptr, ptr %75, i64 1
  %77 = load ptr, ptr %76, align 8, !tbaa !4
  call void @_PyArg_BadArgument(ptr noundef @.str.19, ptr noundef @.str.52, ptr noundef @.str.53, ptr noundef %77)
  br label %101

78:                                               ; preds = %73
  br label %79

79:                                               ; preds = %78, %47
  %80 = load i64, ptr %7, align 8, !tbaa !11
  %81 = icmp slt i64 %80, 3
  br i1 %81, label %82, label %83

82:                                               ; preds = %79
  br label %95

83:                                               ; preds = %79
  %84 = load ptr, ptr %6, align 8, !tbaa !13
  %85 = getelementptr ptr, ptr %84, i64 2
  %86 = load ptr, ptr %85, align 8, !tbaa !4
  %87 = call i32 @PyLong_AsInt(ptr noundef %86)
  store i32 %87, ptr %11, align 4, !tbaa !19
  %88 = load i32, ptr %11, align 4, !tbaa !19
  %89 = icmp eq i32 %88, -1
  br i1 %89, label %90, label %94

90:                                               ; preds = %83
  %91 = call ptr @PyErr_Occurred()
  %92 = icmp ne ptr %91, null
  br i1 %92, label %93, label %94

93:                                               ; preds = %90
  br label %101

94:                                               ; preds = %90, %83
  br label %95

95:                                               ; preds = %94, %82, %41
  %96 = load ptr, ptr %5, align 8, !tbaa !4
  %97 = load ptr, ptr %9, align 8, !tbaa !4
  %98 = load ptr, ptr %10, align 8, !tbaa !9
  %99 = load i32, ptr %11, align 4, !tbaa !19
  %100 = call ptr @_codecs_utf_32_encode_impl(ptr noundef %96, ptr noundef %97, ptr noundef %98, i32 noundef %99)
  store ptr %100, ptr %8, align 8, !tbaa !4
  br label %101

101:                                              ; preds = %95, %71, %93, %74, %31, %23
  %102 = load ptr, ptr %8, align 8, !tbaa !4
  store ptr %102, ptr %4, align 8
  store i32 1, ptr %13, align 4
  br label %103

103:                                              ; preds = %101, %71
  call void @llvm.lifetime.end.p0(i64 4, ptr %11) #6
  call void @llvm.lifetime.end.p0(i64 8, ptr %10) #6
  call void @llvm.lifetime.end.p0(i64 8, ptr %9) #6
  call void @llvm.lifetime.end.p0(i64 8, ptr %8) #6
  %104 = load ptr, ptr %4, align 8
  ret ptr %104
}